target datalayout = "e-m:e-p270:32:32-p271:32:32-p272:64:64-i64:64-i128:128-f80:128-n8:16:32:64-S128"
target triple = "x86_64-pc-linux-gnu"

%struct.Qureg = type { i32, i32, i32, i64, i64, i32, i32, %struct.ComplexArray, %struct.ComplexArray, %struct.ComplexArray, ptr, ptr, ptr, ptr, ptr, ptr }
%struct.ComplexArray = type { ptr, ptr }

@__func__.mixDepolarising = private unnamed_addr constant [16 x i8] c"mixDepolarising\00", align 1
@.str.34 = private unnamed_addr constant [101 x i8] c"Here, a homogeneous depolarising error (X, Y, or Z) occured on qubit %d with total probability %.14g\00", align 1

; Function Attrs: nounwind uwtable
define void @mixDepolarising(ptr noundef byval(%struct.Qureg) align 8 %0, i32 noundef %1, double noundef %2) #0 {
  %4 = alloca i32, align 4
  %5 = alloca double, align 8
  store i32 %1, ptr %4, align 4, !tbaa !4
  store double %2, ptr %5, align 8, !tbaa !25
  call void @validateDensityMatrQureg(ptr noundef byval(%struct.Qureg) align 8 %0, ptr noundef @__func__.mixDepolarising)
  %6 = load i32, ptr %4, align 4, !tbaa !4
  call void @validateTarget(ptr noundef byval(%struct.Qureg) align 8 %0, i32 noundef %6, ptr noundef @__func__.mixDepolarising)
  %7 = load double, ptr %5, align 8, !tbaa !25
  call void @validateOneQubitDepolProb(double noundef %7, ptr noundef @__func__.mixDepolarising)
  %8 = load i32, ptr %4, align 4, !tbaa !4
  %9 = load double, ptr %5, align 8, !tbaa !25
  %10 = fmul double 4.000000e+00, %9
  %11 = fdiv double %10, 3.000000e+00
  call void @densmatr_mixDepolarising(ptr noundef byval(%struct.Qureg) align 8 %0, i32 noundef %8, double noundef %11)
  %12 = load i32, ptr %4, align 4, !tbaa !4
  %13 = load double, ptr %5, align 8, !tbaa !25
  call void (ptr, ptr, ...) @qasm_recordComment(ptr noundef byval(%struct.Qureg) align 8 %0, ptr noundef @.str.34, i32 noundef %12, double noundef %13)
  ret void
}