; Function Attrs: nounwind uwtable
define void @mixDepolarising(ptr noundef readonly byval(%struct.Qureg) align 8 captures(none) %0, i32 noundef %1, double noundef %2) local_unnamed_addr #0 {
  tail call void @validateDensityMatrQureg(ptr noundef nonnull byval(%struct.Qureg) align 8 %0, ptr noundef nonnull @__func__.mixDepolarising) #17
  tail call void @validateTarget(ptr noundef nonnull byval(%struct.Qureg) align 8 %0, i32 noundef %1, ptr noundef nonnull @__func__.mixDepolarising) #17
  tail call void @validateOneQubitDepolProb(double noundef %2, ptr noundef nonnull @__func__.mixDepolarising) #17
  %4 = fmul double %2, 4.000000e+00
  %5 = fdiv double %4, 3.000000e+00
  tail call void @densmatr_mixDepolarising(ptr noundef nonnull byval(%struct.Qureg) align 8 %0, i32 noundef %1, double noundef %5) #17
  tail call void (ptr, ptr, ...) @qasm_recordComment(ptr noundef nonnull byval(%struct.Qureg) align 8 %0, ptr noundef nonnull @.str.34, i32 noundef %1, double noundef %2) #17
  ret void
}